; Function Attrs: nounwind uwtable
define noalias nonnull ptr @l_Lake_instAlternativeOfMonadOfMonadExceptOfPUnit__lake___rarg(ptr noundef readonly captures(none) %0, ptr noundef %1) local_unnamed_addr #0 {
  %3 = getelementptr inbounds nuw i8, ptr %0, i64 8
  %4 = load ptr, ptr %3, align 8, !tbaa !4
  %5 = ptrtoint ptr %1 to i64
  %6 = and i64 %5, 1
  %.not = icmp eq i64 %6, 0
  br i1 %.not, label %7, label %lean_inc.exit14

7:                                                ; preds = %2
  %.val.i = load i32, ptr %1, align 4, !tbaa !8
  %8 = icmp sgt i32 %.val.i, 0
  br i1 %8, label %9, label %11, !prof !11

9:                                                ; preds = %7
  %10 = add nuw i32 %.val.i, 1
  store i32 %10, ptr %1, align 4, !tbaa !8
  br label %lean_inc.exit14

11:                                               ; preds = %7
  %.not.i = icmp eq i32 %.val.i, 0
  br i1 %.not.i, label %lean_inc.exit14, label %12

12:                                               ; preds = %11
  tail call void @lean_inc_ref_cold(ptr noundef nonnull %1) #3
  br label %lean_inc.exit14

lean_inc.exit14:                                  ; preds = %12, %11, %9, %2
  tail call void @lean_inc_heartbeat() #3
  %13 = tail call noalias ptr @mi_malloc_small(i64 noundef 32) #3
  %14 = icmp eq ptr %13, null
  br i1 %14, label %15, label %lean_alloc_closure.exit

15:                                               ; preds = %lean_inc.exit14
  tail call void @lean_internal_panic_out_of_memory() #4
  unreachable

lean_alloc_closure.exit:                          ; preds = %lean_inc.exit14
  %16 = getelementptr inbounds nuw i8, ptr %13, i64 4
  store i32 1, ptr %13, align 4, !tbaa !8
  store i32 -184549344, ptr %16, align 4
  %17 = getelementptr inbounds nuw i8, ptr %13, i64 8
  store ptr @l_Lake_instAlternativeOfMonadOfMonadExceptOfPUnit__lake___rarg___lambda__1, ptr %17, align 8, !tbaa !4
  %18 = getelementptr inbounds nuw i8, ptr %13, i64 16
  store i16 2, ptr %18, align 8, !tbaa !12
  %19 = getelementptr inbounds nuw i8, ptr %13, i64 18
  store i16 1, ptr %19, align 2, !tbaa !12
  %20 = getelementptr inbounds nuw i8, ptr %13, i64 24
  store ptr %1, ptr %20, align 8, !tbaa !4
  tail call void @lean_inc_heartbeat() #3
  %21 = tail call noalias ptr @mi_malloc_small(i64 noundef 32) #3
  %22 = icmp eq ptr %21, null
  br i1 %22, label %23, label %lean_alloc_closure.exit15

23:                                               ; preds = %lean_alloc_closure.exit
  tail call void @lean_internal_panic_out_of_memory() #4
  unreachable

lean_alloc_closure.exit15:                        ; preds = %lean_alloc_closure.exit
  %24 = getelementptr inbounds nuw i8, ptr %21, i64 4
  store i32 1, ptr %21, align 4, !tbaa !8
  store i32 -184549344, ptr %24, align 4
  %25 = getelementptr inbounds nuw i8, ptr %21, i64 8
  store ptr @l_Lake_instAlternativeOfMonadOfMonadExceptOfPUnit__lake___rarg___lambda__2, ptr %25, align 8, !tbaa !4
  %26 = getelementptr inbounds nuw i8, ptr %21, i64 16
  store i16 4, ptr %26, align 8, !tbaa !12
  %27 = getelementptr inbounds nuw i8, ptr %21, i64 18
  store i16 1, ptr %27, align 2, !tbaa !12
  %28 = getelementptr inbounds nuw i8, ptr %21, i64 24
  store ptr %1, ptr %28, align 8, !tbaa !4
  %29 = ptrtoint ptr %4 to i64
  %30 = and i64 %29, 1
  %.not19 = icmp eq i64 %30, 0
  br i1 %.not19, label %31, label %lean_inc.exit

31:                                               ; preds = %lean_alloc_closure.exit15
  %.val.i16 = load i32, ptr %4, align 4, !tbaa !8
  %32 = icmp sgt i32 %.val.i16, 0
  br i1 %32, label %33, label %35, !prof !11

33:                                               ; preds = %31
  %34 = add nuw i32 %.val.i16, 1
  store i32 %34, ptr %4, align 4, !tbaa !8
  br label %lean_inc.exit

35:                                               ; preds = %31
  %.not.i17 = icmp eq i32 %.val.i16, 0
  br i1 %.not.i17, label %lean_inc.exit, label %36

36:                                               ; preds = %35
  tail call void @lean_inc_ref_cold(ptr noundef nonnull %4) #3
  br label %lean_inc.exit

lean_inc.exit:                                    ; preds = %36, %35, %33, %lean_alloc_closure.exit15
  tail call void @lean_inc_heartbeat() #3
  %37 = tail call noalias ptr @mi_malloc_small(i64 noundef 32) #3
  %38 = icmp eq ptr %37, null
  br i1 %38, label %39, label %lean_alloc_ctor.exit

39:                                               ; preds = %lean_inc.exit
  tail call void @lean_internal_panic_out_of_memory() #4
  unreachable

lean_alloc_ctor.exit:                             ; preds = %lean_inc.exit
  %40 = getelementptr inbounds nuw i8, ptr %37, i64 4
  store i32 1, ptr %37, align 4, !tbaa !8
  store i32 196640, ptr %40, align 4
  %41 = getelementptr inbounds nuw i8, ptr %37, i64 8
  store ptr %4, ptr %41, align 8, !tbaa !4
  %42 = getelementptr inbounds nuw i8, ptr %37, i64 16
  store ptr %13, ptr %42, align 8, !tbaa !4
  %43 = getelementptr inbounds nuw i8, ptr %37, i64 24
  store ptr %21, ptr %43, align 8, !tbaa !4
  ret ptr %37
}